---
triple:          'arm64-apple-darwin'
binary-path:     scheduler
relocations:
  - { offset: 0x7098, size: 0x8, addend: 0x0, symName: __ZStL8__ioinit, symObjAddr: 0x24326, symBinAddr: 0x100010000, symSize: 0x0 }
  - { offset: 0x754F, size: 0x8, addend: 0x0, symName: __ZSt7forwardIRK12taskPeriodicEOT_RNSt16remove_referenceIS3_E4typeE, symObjAddr: 0x12C8, symBinAddr: 0x1000036CC, symSize: 0x14 }
  - { offset: 0x7583, size: 0x8, addend: 0x0, symName: __ZNK9__gnu_cxx17__normal_iteratorIPK12taskPeriodicSt6vectorIS1_SaIS1_EEE4baseEv, symObjAddr: 0x12B4, symBinAddr: 0x1000036B8, symSize: 0x14 }
  - { offset: 0x75A7, size: 0x8, addend: 0x0, symName: __ZSt10_ConstructI12taskPeriodicJRKS0_EEvPT_DpOT0_, symObjAddr: 0x1238, symBinAddr: 0x10000363C, symSize: 0x7C }
  - { offset: 0x7613, size: 0x8, addend: 0x0, symName: __ZN12taskPeriodicC1ERKS_, symObjAddr: 0x1180, symBinAddr: 0x100003584, symSize: 0xB8 }
  - { offset: 0x763F, size: 0x8, addend: 0x0, symName: __ZNK9__gnu_cxx17__normal_iteratorIPK12taskPeriodicSt6vectorIS1_SaIS1_EEEdeEv, symObjAddr: 0x1168, symBinAddr: 0x10000356C, symSize: 0x18 }
  - { offset: 0x7667, size: 0x8, addend: 0x0, symName: __ZN9__gnu_cxx17__normal_iteratorIPK12taskPeriodicSt6vectorIS1_SaIS1_EEEppEv, symObjAddr: 0x1140, symBinAddr: 0x100003544, symSize: 0x28 }
  - { offset: 0x7691, size: 0x8, addend: 0x0, symName: __ZN9__gnu_cxxneIPK12taskPeriodicSt6vectorIS1_SaIS1_EEEEbRKNS_17__normal_iteratorIT_T0_EESC_, symObjAddr: 0x10FC, symBinAddr: 0x100003500, symSize: 0x44 }
  - { offset: 0x76DF, size: 0x8, addend: 0x0, symName: __ZNSt15__new_allocatorI12taskPeriodicE8allocateEmPKv, symObjAddr: 0x1064, symBinAddr: 0x100003468, symSize: 0x98 }
  - { offset: 0x775D, size: 0x8, addend: 0x0, symName: __ZSt16__do_uninit_copyIN9__gnu_cxx17__normal_iteratorIPK12taskPeriodicSt6vectorIS2_SaIS2_EEEEPS2_ET0_T_SB_SA_, symObjAddr: 0xFBC, symBinAddr: 0x1000033C0, symSize: 0xA8 }
  - { offset: 0x7800, size: 0x8, addend: 0x0, symName: __ZSt8_DestroyI12taskPeriodicEvPT_, symObjAddr: 0xF9C, symBinAddr: 0x1000033A0, symSize: 0x20 }
  - { offset: 0x7858, size: 0x8, addend: 0x0, symName: __ZN12taskPeriodicD1Ev, symObjAddr: 0xF7C, symBinAddr: 0x100003380, symSize: 0x20 }
  - { offset: 0x7878, size: 0x8, addend: 0x0, symName: __ZSt11__addressofI12taskPeriodicEPT_RS1_, symObjAddr: 0xF68, symBinAddr: 0x10000336C, symSize: 0x14 }
  - { offset: 0x78A8, size: 0x8, addend: 0x0, symName: __ZNSt20__uninitialized_copyILb0EE13__uninit_copyIN9__gnu_cxx17__normal_iteratorIPK12taskPeriodicSt6vectorIS4_SaIS4_EEEEPS4_EET0_T_SD_SC_, symObjAddr: 0xF3C, symBinAddr: 0x100003340, symSize: 0x2C }
  - { offset: 0x7903, size: 0x8, addend: 0x0, symName: __ZNSt12_Vector_baseI12taskPeriodicSaIS0_EE11_M_allocateEm, symObjAddr: 0xEEC, symBinAddr: 0x1000032F0, symSize: 0x50 }
  - { offset: 0x7983, size: 0x8, addend: 0x0, symName: __ZNSt12_Destroy_auxILb0EE9__destroyIP12taskPeriodicEEvT_S4_, symObjAddr: 0xEA0, symBinAddr: 0x1000032A4, symSize: 0x4C }
  - { offset: 0x79C6, size: 0x8, addend: 0x0, symName: __ZNSt15__new_allocatorI12taskPeriodicE10deallocateEPS0_m, symObjAddr: 0xE64, symBinAddr: 0x100003268, symSize: 0x3C }
  - { offset: 0x7A38, size: 0x8, addend: 0x0, symName: __ZSt18uninitialized_copyIN9__gnu_cxx17__normal_iteratorIPK12taskPeriodicSt6vectorIS2_SaIS2_EEEEPS2_ET0_T_SB_SA_, symObjAddr: 0xE30, symBinAddr: 0x100003234, symSize: 0x34 }
  - { offset: 0x7AD7, size: 0x8, addend: 0x0, symName: __ZN9__gnu_cxx17__normal_iteratorIPK12taskPeriodicSt6vectorIS1_SaIS1_EEEC1ERKS3_, symObjAddr: 0xE08, symBinAddr: 0x10000320C, symSize: 0x28 }
  - { offset: 0x7B03, size: 0x8, addend: 0x0, symName: __ZNSt12_Vector_baseI12taskPeriodicSaIS0_EE17_M_create_storageEm, symObjAddr: 0xD9C, symBinAddr: 0x1000031A0, symSize: 0x6C }
  - { offset: 0x7B60, size: 0x8, addend: 0x0, symName: __ZNSt12_Vector_baseI12taskPeriodicSaIS0_EE12_Vector_implC1ERKS1_, symObjAddr: 0xD50, symBinAddr: 0x100003154, symSize: 0x4C }
  - { offset: 0x7BF0, size: 0x8, addend: 0x0, symName: __ZSt8_DestroyIP12taskPeriodicEvT_S2_, symObjAddr: 0xD28, symBinAddr: 0x10000312C, symSize: 0x28 }
  - { offset: 0x7CA0, size: 0x8, addend: 0x0, symName: __ZSt22__uninitialized_copy_aIN9__gnu_cxx17__normal_iteratorIPK12taskPeriodicSt6vectorIS2_SaIS2_EEEEPS2_S2_ET0_T_SB_SA_RSaIT1_E, symObjAddr: 0xCF8, symBinAddr: 0x1000030FC, symSize: 0x30 }
  - { offset: 0x7D0F, size: 0x8, addend: 0x0, symName: __ZNKSt6vectorI12taskPeriodicSaIS0_EE3endEv, symObjAddr: 0xCD0, symBinAddr: 0x1000030D4, symSize: 0x28 }
  - { offset: 0x7D37, size: 0x8, addend: 0x0, symName: __ZNKSt6vectorI12taskPeriodicSaIS0_EE5beginEv, symObjAddr: 0xCAC, symBinAddr: 0x1000030B0, symSize: 0x24 }
  - { offset: 0x7D93, size: 0x8, addend: 0x0, symName: __ZNSt12_Vector_baseI12taskPeriodicSaIS0_EEC2EmRKS1_, symObjAddr: 0xC58, symBinAddr: 0x10000305C, symSize: 0x54 }
  - { offset: 0x7DDC, size: 0x8, addend: 0x0, symName: __ZNKSt12_Vector_baseI12taskPeriodicSaIS0_EE19_M_get_Tp_allocatorEv, symObjAddr: 0xC44, symBinAddr: 0x100003048, symSize: 0x14 }
  - { offset: 0x7E04, size: 0x8, addend: 0x0, symName: __ZNKSt6vectorI12taskPeriodicSaIS0_EE4sizeEv, symObjAddr: 0xC08, symBinAddr: 0x10000300C, symSize: 0x3C }
  - { offset: 0x7E2C, size: 0x8, addend: 0x0, symName: __ZNK9__gnu_cxx17__normal_iteratorIP12taskPeriodicSt6vectorIS1_SaIS1_EEE4baseEv, symObjAddr: 0xBF4, symBinAddr: 0x100002FF8, symSize: 0x14 }
  - { offset: 0x7E7A, size: 0x8, addend: 0x0, symName: __ZN9__gnu_cxx17__normal_iteratorIP12taskPeriodicSt6vectorIS1_SaIS1_EEEC1ERKS2_, symObjAddr: 0xBCC, symBinAddr: 0x100002FD0, symSize: 0x28 }
  - { offset: 0x7EE1, size: 0x8, addend: 0x0, symName: __ZNSt12_Vector_baseI12taskPeriodicSaIS0_EE19_M_get_Tp_allocatorEv, symObjAddr: 0xBB8, symBinAddr: 0x100002FBC, symSize: 0x14 }
  - { offset: 0x7F09, size: 0x8, addend: 0x0, symName: __ZNSt12_Vector_baseI12taskPeriodicSaIS0_EE13_M_deallocateEPS0_m, symObjAddr: 0xB60, symBinAddr: 0x100002F64, symSize: 0x58 }
  - { offset: 0x7FA5, size: 0x8, addend: 0x0, symName: __ZNSt15__new_allocatorI12taskPeriodicED2Ev, symObjAddr: 0xB4C, symBinAddr: 0x100002F50, symSize: 0x14 }
  - { offset: 0x7FE1, size: 0x8, addend: 0x0, symName: __ZNSt12_Vector_baseI12taskPeriodicSaIS0_EE17_Vector_impl_dataC2Ev, symObjAddr: 0xB20, symBinAddr: 0x100002F24, symSize: 0x2C }
  - { offset: 0x8019, size: 0x8, addend: 0x0, symName: __ZNSt7__cxx1112basic_stringIcSt11char_traitsIcESaIcEE12_M_constructIPKcEEvT_S8_St20forward_iterator_tag, symObjAddr: 0xA20, symBinAddr: 0x100002E24, symSize: 0x100 }
  - { offset: 0x8118, size: 0x8, addend: 0x0, symName: __ZZNSt7__cxx1112basic_stringIcSt11char_traitsIcESaIcEE12_M_constructIPKcEEvT_S8_St20forward_iterator_tagEN6_GuardC1EPS4_, symObjAddr: 0x9C8, symBinAddr: 0x100002DCC, symSize: 0x24 }
  - { offset: 0x8148, size: 0x8, addend: 0x0, symName: __ZZNSt7__cxx1112basic_stringIcSt11char_traitsIcESaIcEE12_M_constructIPKcEEvT_S8_St20forward_iterator_tagEN6_GuardD1Ev, symObjAddr: 0x9EC, symBinAddr: 0x100002DF0, symSize: 0x34 }
  - { offset: 0x8238, size: 0x8, addend: 0x0, symName: __ZNSt15__new_allocatorIcED2Ev, symObjAddr: 0x9B4, symBinAddr: 0x100002DB8, symSize: 0x14 }
  - { offset: 0x8296, size: 0x8, addend: 0x0, symName: __ZN9__gnu_cxx11char_traitsIcE2eqERKcS3_, symObjAddr: 0x984, symBinAddr: 0x100002D88, symSize: 0x30 }
  - { offset: 0x82F6, size: 0x8, addend: 0x0, symName: __ZNSt6vectorI12taskPeriodicSaIS0_EEC1ERKS2_, symObjAddr: 0x870, symBinAddr: 0x100002C74, symSize: 0x114 }
  - { offset: 0x83FE, size: 0x8, addend: 0x0, symName: __ZNK9__gnu_cxx17__normal_iteratorIP12taskPeriodicSt6vectorIS1_SaIS1_EEEdeEv, symObjAddr: 0x858, symBinAddr: 0x100002C5C, symSize: 0x18 }
  - { offset: 0x8426, size: 0x8, addend: 0x0, symName: __ZN9__gnu_cxx17__normal_iteratorIP12taskPeriodicSt6vectorIS1_SaIS1_EEEppEv, symObjAddr: 0x830, symBinAddr: 0x100002C34, symSize: 0x28 }
  - { offset: 0x8450, size: 0x8, addend: 0x0, symName: __ZN9__gnu_cxxneIP12taskPeriodicSt6vectorIS1_SaIS1_EEEEbRKNS_17__normal_iteratorIT_T0_EESB_, symObjAddr: 0x7EC, symBinAddr: 0x100002BF0, symSize: 0x44 }
  - { offset: 0x849E, size: 0x8, addend: 0x0, symName: __ZNSt6vectorI12taskPeriodicSaIS0_EE3endEv, symObjAddr: 0x7C4, symBinAddr: 0x100002BC8, symSize: 0x28 }
  - { offset: 0x84C6, size: 0x8, addend: 0x0, symName: __ZNSt6vectorI12taskPeriodicSaIS0_EE5beginEv, symObjAddr: 0x7A0, symBinAddr: 0x100002BA4, symSize: 0x24 }
  - { offset: 0x8538, size: 0x8, addend: 0x0, symName: __ZNSt7__cxx1112basic_stringIcSt11char_traitsIcESaIcEEC1IS3_EEPKcRKS3_, symObjAddr: 0x704, symBinAddr: 0x100002B08, symSize: 0x9C }
  - { offset: 0x85BA, size: 0x8, addend: 0x0, symName: __ZNSt6vectorI12taskPeriodicSaIS0_EED1Ev, symObjAddr: 0x6A8, symBinAddr: 0x100002AAC, symSize: 0x5C }
  - { offset: 0x8632, size: 0x8, addend: 0x0, symName: __ZNSt12_Vector_baseI12taskPeriodicSaIS0_EED2Ev, symObjAddr: 0x644, symBinAddr: 0x100002A48, symSize: 0x64 }
  - { offset: 0x868B, size: 0x8, addend: 0x0, symName: __ZNSt12_Vector_baseI12taskPeriodicSaIS0_EE12_Vector_implC1Ev, symObjAddr: 0x60C, symBinAddr: 0x100002A10, symSize: 0x38 }
  - { offset: 0x8746, size: 0x8, addend: 0x0, symName: __ZNSt7__cxx1112basic_stringIcSt11char_traitsIcESaIcEE12_Alloc_hiderD1Ev, symObjAddr: 0x5E0, symBinAddr: 0x1000029E4, symSize: 0x2C }
  - { offset: 0x8787, size: 0x8, addend: 0x0, symName: __ZN9__gnu_cxx11char_traitsIcE6lengthEPKc, symObjAddr: 0x588, symBinAddr: 0x10000298C, symSize: 0x58 }
  - { offset: 0x87C5, size: 0x8, addend: 0x0, symName: _main, symObjAddr: 0xD8, symBinAddr: 0x1000024DC, symSize: 0x4B0 }
  - { offset: 0x896D, size: 0x8, addend: 0x0, symName: __ZNSt6vectorI12taskPeriodicSaIS0_EEC1Ev, symObjAddr: 0xB8, symBinAddr: 0x1000024BC, symSize: 0x20 }
  - { offset: 0x89A9, size: 0x8, addend: 0x0, symName: __ZNSt12_Vector_baseI12taskPeriodicSaIS0_EEC2Ev, symObjAddr: 0x98, symBinAddr: 0x10000249C, symSize: 0x20 }
  - { offset: 0x89F1, size: 0x8, addend: 0x0, symName: __ZNSt12_Vector_baseI12taskPeriodicSaIS0_EE12_Vector_implD1Ev, symObjAddr: 0x6C, symBinAddr: 0x100002470, symSize: 0x2C }
  - { offset: 0x8A32, size: 0x8, addend: 0x0, symName: __ZNSt11char_traitsIcE6lengthEPKc, symObjAddr: 0x30, symBinAddr: 0x100002434, symSize: 0x3C }
  - { offset: 0x8A7C, size: 0x8, addend: 0x0, symName: __ZdlPvS_, symObjAddr: 0x18, symBinAddr: 0x10000241C, symSize: 0x18 }
  - { offset: 0x8AB0, size: 0x8, addend: 0x0, symName: __ZnwmPv, symObjAddr: 0x0, symBinAddr: 0x100002404, symSize: 0x18 }
  - { offset: 0xC694, size: 0x8, addend: 0x0, symName: __ZStL8__ioinit, symObjAddr: 0x16050, symBinAddr: 0x100010001, symSize: 0x0 }
  - { offset: 0xC909, size: 0x8, addend: 0x0, symName: __ZN12taskPeriodicC1ENSt7__cxx1112basic_stringIcSt11char_traitsIcESaIcEEEiiibi, symObjAddr: 0xA4, symBinAddr: 0x1000037D4, symSize: 0xA4 }
  - { offset: 0xC962, size: 0x8, addend: 0x0, symName: __ZN12taskPeriodicC2ENSt7__cxx1112basic_stringIcSt11char_traitsIcESaIcEEEiiibi, symObjAddr: 0x0, symBinAddr: 0x100003730, symSize: 0xA4 }
  - { offset: 0x119C5, size: 0x8, addend: 0x0, symName: __Z7isdigiti, symObjAddr: 0x68, symBinAddr: 0x100003930, symSize: 0x20 }
  - { offset: 0x121C5, size: 0x8, addend: 0x0, symName: __ZStL8__ioinit, symObjAddr: 0x2538C, symBinAddr: 0x100010002, symSize: 0x0 }
  - { offset: 0x125BC, size: 0x8, addend: 0x0, symName: __ZN12taskPeriodicC1EOS_, symObjAddr: 0x1B40, symBinAddr: 0x10000519C, symSize: 0xB8 }
  - { offset: 0x125EA, size: 0x8, addend: 0x0, symName: __ZSt7forwardI12taskPeriodicEOT_RNSt16remove_referenceIS1_E4typeE, symObjAddr: 0x1B2C, symBinAddr: 0x100005188, symSize: 0x14 }
  - { offset: 0x12691, size: 0x8, addend: 0x0, symName: __ZSt4moveIR12taskPeriodicEONSt16remove_referenceIT_E4typeEOS3_, symObjAddr: 0x1B18, symBinAddr: 0x100005174, symSize: 0x14 }
  - { offset: 0x126D5, size: 0x8, addend: 0x0, symName: __ZSt19__relocate_object_aI12taskPeriodicS0_SaIS0_EEvPT_PT0_RT1_, symObjAddr: 0x1A48, symBinAddr: 0x1000050A4, symSize: 0xD0 }
  - { offset: 0x127FF, size: 0x8, addend: 0x0, symName: __ZSt3minImERKT_S2_S2_, symObjAddr: 0x19FC, symBinAddr: 0x10000506C, symSize: 0x38 }
  - { offset: 0x12854, size: 0x8, addend: 0x0, symName: __ZSt14__relocate_a_1IP12taskPeriodicS1_SaIS0_EET0_T_S4_S3_RT1_, symObjAddr: 0x1978, symBinAddr: 0x100004FE8, symSize: 0x84 }
  - { offset: 0x128D8, size: 0x8, addend: 0x0, symName: __ZSt12__niter_baseIP12taskPeriodicET_S2_, symObjAddr: 0x1964, symBinAddr: 0x100004FD4, symSize: 0x14 }
  - { offset: 0x1291D, size: 0x8, addend: 0x0, symName: __ZNSt6vectorI12taskPeriodicSaIS0_EE11_S_max_sizeERKS1_, symObjAddr: 0x1854, symBinAddr: 0x100004F70, symSize: 0x64 }
  - { offset: 0x129CE, size: 0x8, addend: 0x0, symName: __ZSt12__relocate_aIP12taskPeriodicS1_SaIS0_EET0_T_S4_S3_RT1_, symObjAddr: 0x17F8, symBinAddr: 0x100004F14, symSize: 0x5C }
  - { offset: 0x12A41, size: 0x8, addend: 0x0, symName: __ZSt3maxImERKT_S2_S2_, symObjAddr: 0x1748, symBinAddr: 0x100004EDC, symSize: 0x38 }
  - { offset: 0x12A86, size: 0x8, addend: 0x0, symName: __ZNKSt6vectorI12taskPeriodicSaIS0_EE8max_sizeEv, symObjAddr: 0x16EC, symBinAddr: 0x100004EBC, symSize: 0x20 }
  - { offset: 0x12B25, size: 0x8, addend: 0x0, symName: __ZNK9__gnu_cxx17__normal_iteratorIP12taskPeriodicSt6vectorIS1_SaIS1_EEEmiEl, symObjAddr: 0x1684, symBinAddr: 0x100004E6C, symSize: 0x50 }
  - { offset: 0x12B59, size: 0x8, addend: 0x0, symName: __ZNSt6vectorI12taskPeriodicSaIS0_EE11_S_relocateEPS0_S3_S3_RS1_, symObjAddr: 0x163C, symBinAddr: 0x100004E38, symSize: 0x34 }
  - { offset: 0x12BB1, size: 0x8, addend: 0x0, symName: __ZSt12__to_addressI12taskPeriodicEPT_S2_, symObjAddr: 0x1628, symBinAddr: 0x100004E24, symSize: 0x14 }
  - { offset: 0x12C19, size: 0x8, addend: 0x0, symName: __ZN9__gnu_cxxmiIP12taskPeriodicSt6vectorIS1_SaIS1_EEEENS_17__normal_iteratorIT_T0_E15difference_typeERKS9_SC_, symObjAddr: 0x1584, symBinAddr: 0x100004DD0, symSize: 0x54 }
  - { offset: 0x12C67, size: 0x8, addend: 0x0, symName: __ZNKSt6vectorI12taskPeriodicSaIS0_EE12_M_check_lenEmPKc, symObjAddr: 0x1468, symBinAddr: 0x100004D00, symSize: 0xD0 }
  - { offset: 0x12D31, size: 0x8, addend: 0x0, symName: __ZNSt6vectorI12taskPeriodicSaIS0_EE17_M_realloc_appendIJRNSt7__cxx1112basic_stringIcSt11char_traitsIcESaIcEEERiiSB_biEEEvDpOT_, symObjAddr: 0x10FC, symBinAddr: 0x100004994, symSize: 0x36C }
  - { offset: 0x12EF5, size: 0x8, addend: 0x0, symName: __ZZNSt6vectorI12taskPeriodicSaIS0_EE17_M_realloc_appendIJRNSt7__cxx1112basic_stringIcSt11char_traitsIcESaIcEEERiiSB_biEEEvDpOT_EN6_GuardC1EPS0_mRS1_, symObjAddr: 0x1058, symBinAddr: 0x1000048F0, symSize: 0x44 }
  - { offset: 0x12F35, size: 0x8, addend: 0x0, symName: __ZZNSt6vectorI12taskPeriodicSaIS0_EE17_M_realloc_appendIJRNSt7__cxx1112basic_stringIcSt11char_traitsIcESaIcEEERiiSB_biEEEvDpOT_EN6_GuardD1Ev, symObjAddr: 0x109C, symBinAddr: 0x100004934, symSize: 0x60 }
  - { offset: 0x130E9, size: 0x8, addend: 0x0, symName: __ZNSt6vectorI12taskPeriodicSaIS0_EE4backEv, symObjAddr: 0x1020, symBinAddr: 0x1000048B8, symSize: 0x38 }
  - { offset: 0x13111, size: 0x8, addend: 0x0, symName: __ZNSt6vectorI12taskPeriodicSaIS0_EE17_M_realloc_appendIJRNSt7__cxx1112basic_stringIcSt11char_traitsIcESaIcEEERiSB_ibiEEEvDpOT_, symObjAddr: 0xCB4, symBinAddr: 0x10000454C, symSize: 0x36C }
  - { offset: 0x132D5, size: 0x8, addend: 0x0, symName: __ZZNSt6vectorI12taskPeriodicSaIS0_EE17_M_realloc_appendIJRNSt7__cxx1112basic_stringIcSt11char_traitsIcESaIcEEERiSB_ibiEEEvDpOT_EN6_GuardC1EPS0_mRS1_, symObjAddr: 0xC10, symBinAddr: 0x1000044A8, symSize: 0x44 }
  - { offset: 0x13315, size: 0x8, addend: 0x0, symName: __ZZNSt6vectorI12taskPeriodicSaIS0_EE17_M_realloc_appendIJRNSt7__cxx1112basic_stringIcSt11char_traitsIcESaIcEEERiSB_ibiEEEvDpOT_EN6_GuardD1Ev, symObjAddr: 0xC54, symBinAddr: 0x1000044EC, symSize: 0x60 }
  - { offset: 0x134CB, size: 0x8, addend: 0x0, symName: __ZSt7forwardIbEOT_RNSt16remove_referenceIS0_E4typeE, symObjAddr: 0xBFC, symBinAddr: 0x100004494, symSize: 0x14 }
  - { offset: 0x13501, size: 0x8, addend: 0x0, symName: __ZSt7forwardIiEOT_RNSt16remove_referenceIS0_E4typeE, symObjAddr: 0xBE8, symBinAddr: 0x100004480, symSize: 0x14 }
  - { offset: 0x13537, size: 0x8, addend: 0x0, symName: __ZSt7forwardIRiEOT_RNSt16remove_referenceIS1_E4typeE, symObjAddr: 0xBD4, symBinAddr: 0x10000446C, symSize: 0x14 }
  - { offset: 0x1356D, size: 0x8, addend: 0x0, symName: __ZSt7forwardIRNSt7__cxx1112basic_stringIcSt11char_traitsIcESaIcEEEEOT_RNSt16remove_referenceIS7_E4typeE, symObjAddr: 0xBC0, symBinAddr: 0x100004458, symSize: 0x14 }
  - { offset: 0x135A1, size: 0x8, addend: 0x0, symName: __ZNSt6vectorI12taskPeriodicSaIS0_EE12emplace_backIJRNSt7__cxx1112basic_stringIcSt11char_traitsIcESaIcEEERiiSB_biEEERS0_DpOT_, symObjAddr: 0x928, symBinAddr: 0x1000041C0, symSize: 0x298 }
  - { offset: 0x136DE, size: 0x8, addend: 0x0, symName: __ZNSt6vectorI12taskPeriodicSaIS0_EE12emplace_backIJRNSt7__cxx1112basic_stringIcSt11char_traitsIcESaIcEEERiSB_ibiEEERS0_DpOT_, symObjAddr: 0x690, symBinAddr: 0x100003F28, symSize: 0x298 }
  - { offset: 0x1384A, size: 0x8, addend: 0x0, symName: __ZN9__gnu_cxx6__stoaIlicJiEEET0_PFT_PKT1_PPS3_DpT2_EPKcS5_PmS9_, symObjAddr: 0x58C, symBinAddr: 0x100003E24, symSize: 0x104 }
  - { offset: 0x1397C, size: 0x8, addend: 0x0, symName: __ZZN9__gnu_cxx6__stoaIlicJiEEET0_PFT_PKT1_PPS3_DpT2_EPKcS5_PmS9_EN11_Save_errnoC1Ev, symObjAddr: 0x4CC, symBinAddr: 0x100003D64, symSize: 0x30 }
  - { offset: 0x139A4, size: 0x8, addend: 0x0, symName: __ZZN9__gnu_cxx6__stoaIlicJiEEET0_PFT_PKT1_PPS3_DpT2_EPKcS5_PmS9_EN11_Save_errnoD1Ev, symObjAddr: 0x4FC, symBinAddr: 0x100003D94, symSize: 0x50 }
  - { offset: 0x13A04, size: 0x8, addend: 0x0, symName: __ZZN9__gnu_cxx6__stoaIlicJiEEET0_PFT_PKT1_PPS3_DpT2_EPKcS5_PmS9_EN10_Range_chk6_S_chkElSt17integral_constantIbLb1EE, symObjAddr: 0x54C, symBinAddr: 0x100003DE4, symSize: 0x40 }
  - { offset: 0x13A4C, size: 0x8, addend: 0x0, symName: __Z13readInputFileRKNSt7__cxx1112basic_stringIcSt11char_traitsIcESaIcEEERSt6vectorI12taskPeriodicSaIS8_EESB_Ri, symObjAddr: 0x1E4, symBinAddr: 0x100003A7C, symSize: 0x2E8 }
  - { offset: 0x13B85, size: 0x8, addend: 0x0, symName: __Z13parseTaskLineRKNSt7__cxx1112basic_stringIcSt11char_traitsIcESaIcEEERS4_RiS8_, symObjAddr: 0xFC, symBinAddr: 0x100003994, symSize: 0xE8 }
  - { offset: 0x13C09, size: 0x8, addend: 0x0, symName: __ZNSt7__cxx114stoiERKNS_12basic_stringIcSt11char_traitsIcESaIcEEEPmi, symObjAddr: 0xB8, symBinAddr: 0x100003950, symSize: 0x44 }
  - { offset: 0x13C5D, size: 0x8, addend: 0x0, symName: __Z9__isctypeim, symObjAddr: 0x0, symBinAddr: 0x1000038C8, symSize: 0x68 }
  - { offset: 0x19BB9, size: 0x8, addend: 0x0, symName: __ZStL8__ioinit, symObjAddr: 0x2D852, symBinAddr: 0x100010003, symSize: 0x0 }
  - { offset: 0x1A05F, size: 0x8, addend: 0x0, symName: __ZSteqIP12taskPeriodicEbRKSt13move_iteratorIT_ES6_, symObjAddr: 0x2A2C, symBinAddr: 0x100006EDC, symSize: 0x40 }
  - { offset: 0x1A0A4, size: 0x8, addend: 0x0, symName: __ZNKSt13move_iteratorIP12taskPeriodicE4baseEv, symObjAddr: 0x2A14, symBinAddr: 0x100006EC4, symSize: 0x18 }
  - { offset: 0x1A0CE, size: 0x8, addend: 0x0, symName: __ZSt7forwardIR12taskPeriodicEOT_RNSt16remove_referenceIS2_E4typeE, symObjAddr: 0x2A00, symBinAddr: 0x100006EB0, symSize: 0x14 }
  - { offset: 0x1A0FE, size: 0x8, addend: 0x0, symName: __ZSt10_ConstructI12taskPeriodicJS0_EEvPT_DpOT0_, symObjAddr: 0x29A0, symBinAddr: 0x100006E64, symSize: 0x4C }
  - { offset: 0x1A14A, size: 0x8, addend: 0x0, symName: __ZNKSt13move_iteratorIP12taskPeriodicEdeEv, symObjAddr: 0x28D0, symBinAddr: 0x100006E4C, symSize: 0x18 }
  - { offset: 0x1A172, size: 0x8, addend: 0x0, symName: __ZNSt13move_iteratorIP12taskPeriodicEppEv, symObjAddr: 0x28A8, symBinAddr: 0x100006E24, symSize: 0x28 }
  - { offset: 0x1A196, size: 0x8, addend: 0x0, symName: __ZStneIP12taskPeriodicEbRKSt13move_iteratorIT_ES6_, symObjAddr: 0x287C, symBinAddr: 0x100006DF8, symSize: 0x2C }
  - { offset: 0x1A1D7, size: 0x8, addend: 0x0, symName: __ZSt10_ConstructI12taskPeriodicJRS0_EEvPT_DpOT0_, symObjAddr: 0x2800, symBinAddr: 0x100006D7C, symSize: 0x7C }
  - { offset: 0x1A21F, size: 0x8, addend: 0x0, symName: __ZNSt11__copy_moveILb0ELb0ESt26random_access_iterator_tagE8__copy_mIP12taskPeriodicS4_EET0_T_S6_S5_, symObjAddr: 0x2778, symBinAddr: 0x100006CF4, symSize: 0x88 }
  - { offset: 0x1A2B2, size: 0x8, addend: 0x0, symName: __ZN12taskPeriodicaSERKS_, symObjAddr: 0x26C0, symBinAddr: 0x100006C3C, symSize: 0xB8 }
  - { offset: 0x1A2DE, size: 0x8, addend: 0x0, symName: __ZNSt20__copy_move_backwardILb1ELb0ESt26random_access_iterator_tagE13__copy_move_bIP12taskPeriodicS4_EET0_T_S6_S5_, symObjAddr: 0x2630, symBinAddr: 0x100006BAC, symSize: 0x90 }
  - { offset: 0x1A351, size: 0x8, addend: 0x0, symName: __ZN12taskPeriodicaSEOS_, symObjAddr: 0x2578, symBinAddr: 0x100006AF4, symSize: 0xB8 }
  - { offset: 0x1A37D, size: 0x8, addend: 0x0, symName: __ZSt16__do_uninit_copyISt13move_iteratorIP12taskPeriodicES2_ET0_T_S5_S4_, symObjAddr: 0x24D0, symBinAddr: 0x100006A4C, symSize: 0xA8 }
  - { offset: 0x1A3E3, size: 0x8, addend: 0x0, symName: __ZSt16__do_uninit_copyIN9__gnu_cxx17__normal_iteratorIP12taskPeriodicSt6vectorIS2_SaIS2_EEEES3_ET0_T_S9_S8_, symObjAddr: 0x23DC, symBinAddr: 0x1000069A4, symSize: 0xA8 }
  - { offset: 0x1A449, size: 0x8, addend: 0x0, symName: __ZSt14__copy_move_a2ILb0EP12taskPeriodicS1_ET1_T0_S3_S2_, symObjAddr: 0x23B0, symBinAddr: 0x100006978, symSize: 0x2C }
  - { offset: 0x1A4AD, size: 0x8, addend: 0x0, symName: __ZSt23__copy_move_backward_a2ILb1EP12taskPeriodicS1_ET1_T0_S3_S2_, symObjAddr: 0x2384, symBinAddr: 0x10000694C, symSize: 0x2C }
  - { offset: 0x1A511, size: 0x8, addend: 0x0, symName: __ZNSt20__uninitialized_copyILb0EE13__uninit_copyISt13move_iteratorIP12taskPeriodicES4_EET0_T_S7_S6_, symObjAddr: 0x2358, symBinAddr: 0x100006920, symSize: 0x2C }
  - { offset: 0x1A56E, size: 0x8, addend: 0x0, symName: __ZNSt20__uninitialized_copyILb0EE13__uninit_copyIN9__gnu_cxx17__normal_iteratorIP12taskPeriodicSt6vectorIS4_SaIS4_EEEES5_EET0_T_SB_SA_, symObjAddr: 0x2078, symBinAddr: 0x1000068F4, symSize: 0x2C }
  - { offset: 0x1A5C9, size: 0x8, addend: 0x0, symName: __ZN9__gnu_cxx17__normal_iteratorIP12taskPeriodicSt6vectorIS1_SaIS1_EEEpLEl, symObjAddr: 0x2038, symBinAddr: 0x1000068B4, symSize: 0x40 }
  - { offset: 0x1A5FD, size: 0x8, addend: 0x0, symName: __ZSt12__niter_wrapIN9__gnu_cxx17__normal_iteratorIP12taskPeriodicSt6vectorIS2_SaIS2_EEEES3_ET_S8_T0_, symObjAddr: 0x1FDC, symBinAddr: 0x100006858, symSize: 0x5C }
  - { offset: 0x1A647, size: 0x8, addend: 0x0, symName: __ZSt14__copy_move_a1ILb0EP12taskPeriodicS1_ET1_T0_S3_S2_, symObjAddr: 0x1FB0, symBinAddr: 0x10000682C, symSize: 0x2C }
  - { offset: 0x1A6AB, size: 0x8, addend: 0x0, symName: __ZSt12__niter_baseIP12taskPeriodicSt6vectorIS0_SaIS0_EEET_N9__gnu_cxx17__normal_iteratorIS5_T0_EE, symObjAddr: 0x1F90, symBinAddr: 0x10000680C, symSize: 0x20 }
  - { offset: 0x1A6E5, size: 0x8, addend: 0x0, symName: __ZSt12__niter_wrapIP12taskPeriodicET_RKS2_S2_, symObjAddr: 0x1F78, symBinAddr: 0x1000067F4, symSize: 0x18 }
  - { offset: 0x1A71E, size: 0x8, addend: 0x0, symName: __ZSt23__copy_move_backward_a1ILb1EP12taskPeriodicS1_ET1_T0_S3_S2_, symObjAddr: 0x1F4C, symBinAddr: 0x1000067C8, symSize: 0x2C }
  - { offset: 0x1A782, size: 0x8, addend: 0x0, symName: __ZSt18uninitialized_copyISt13move_iteratorIP12taskPeriodicES2_ET0_T_S5_S4_, symObjAddr: 0x1F04, symBinAddr: 0x100006794, symSize: 0x34 }
  - { offset: 0x1A821, size: 0x8, addend: 0x0, symName: __ZNSt13move_iteratorIP12taskPeriodicEC1ES1_, symObjAddr: 0x1ED4, symBinAddr: 0x100006764, symSize: 0x30 }
  - { offset: 0x1A855, size: 0x8, addend: 0x0, symName: __ZSt4moveIRP12taskPeriodicEONSt16remove_referenceIT_E4typeEOS4_, symObjAddr: 0x1EC0, symBinAddr: 0x100006750, symSize: 0x14 }
  - { offset: 0x1A885, size: 0x8, addend: 0x0, symName: __ZSt32__make_move_if_noexcept_iteratorI12taskPeriodicSt13move_iteratorIPS0_EET0_PT_, symObjAddr: 0x1D64, symBinAddr: 0x10000672C, symSize: 0x24 }
  - { offset: 0x1A8BF, size: 0x8, addend: 0x0, symName: __ZSt18uninitialized_copyIN9__gnu_cxx17__normal_iteratorIP12taskPeriodicSt6vectorIS2_SaIS2_EEEES3_ET0_T_S9_S8_, symObjAddr: 0x1CD8, symBinAddr: 0x1000066F8, symSize: 0x34 }
  - { offset: 0x1A934, size: 0x8, addend: 0x0, symName: __ZSt9__advanceIN9__gnu_cxx17__normal_iteratorIP12taskPeriodicSt6vectorIS2_SaIS2_EEEElEvRT_T0_St26random_access_iterator_tag, symObjAddr: 0x1CAC, symBinAddr: 0x1000066CC, symSize: 0x2C }
  - { offset: 0x1A984, size: 0x8, addend: 0x0, symName: __ZSt13__copy_move_aILb0EN9__gnu_cxx17__normal_iteratorIP12taskPeriodicSt6vectorIS2_SaIS2_EEEES7_ET1_T0_S9_S8_, symObjAddr: 0x1C4C, symBinAddr: 0x10000666C, symSize: 0x60 }
  - { offset: 0x1A9E8, size: 0x8, addend: 0x0, symName: __ZSt12__miter_baseIN9__gnu_cxx17__normal_iteratorIP12taskPeriodicSt6vectorIS2_SaIS2_EEEEET_S8_, symObjAddr: 0x1C38, symBinAddr: 0x100006658, symSize: 0x14 }
  - { offset: 0x1AA19, size: 0x8, addend: 0x0, symName: __ZSt22__copy_move_backward_aILb1EP12taskPeriodicS1_ET1_T0_S3_S2_, symObjAddr: 0x1BD8, symBinAddr: 0x1000065F8, symSize: 0x60 }
  - { offset: 0x1AA7D, size: 0x8, addend: 0x0, symName: __ZSt12__miter_baseIP12taskPeriodicET_S2_, symObjAddr: 0x1BC4, symBinAddr: 0x1000065E4, symSize: 0x14 }
  - { offset: 0x1AAAE, size: 0x8, addend: 0x0, symName: __ZSt22__uninitialized_copy_aISt13move_iteratorIP12taskPeriodicES2_S1_ET0_T_S5_S4_RSaIT1_E, symObjAddr: 0x1B94, symBinAddr: 0x1000065B4, symSize: 0x30 }
  - { offset: 0x1AB19, size: 0x8, addend: 0x0, symName: __ZSt18make_move_iteratorIP12taskPeriodicESt13move_iteratorIT_ES3_, symObjAddr: 0x1B68, symBinAddr: 0x100006588, symSize: 0x2C }
  - { offset: 0x1AB4A, size: 0x8, addend: 0x0, symName: __ZSt34__uninitialized_move_if_noexcept_aIP12taskPeriodicS1_SaIS0_EET0_T_S4_S3_RT1_, symObjAddr: 0x1A74, symBinAddr: 0x100006538, symSize: 0x50 }
  - { offset: 0x1ABBD, size: 0x8, addend: 0x0, symName: __ZSt22__uninitialized_copy_aIN9__gnu_cxx17__normal_iteratorIP12taskPeriodicSt6vectorIS2_SaIS2_EEEES3_S2_ET0_T_S9_S8_RSaIT1_E, symObjAddr: 0x1924, symBinAddr: 0x100006508, symSize: 0x30 }
  - { offset: 0x1AC68, size: 0x8, addend: 0x0, symName: __ZSt4copyIN9__gnu_cxx17__normal_iteratorIP12taskPeriodicSt6vectorIS2_SaIS2_EEEES7_ET0_T_S9_S8_, symObjAddr: 0x18DC, symBinAddr: 0x1000064C0, symSize: 0x48 }
  - { offset: 0x1ACC2, size: 0x8, addend: 0x0, symName: __ZSt13move_backwardIP12taskPeriodicS1_ET0_T_S3_S2_, symObjAddr: 0x1894, symBinAddr: 0x100006478, symSize: 0x48 }
  - { offset: 0x1AD1C, size: 0x8, addend: 0x0, symName: __ZSt22__uninitialized_move_aIP12taskPeriodicS1_SaIS0_EET0_T_S4_S3_RT1_, symObjAddr: 0x1844, symBinAddr: 0x100006428, symSize: 0x50 }
  - { offset: 0x1ADC9, size: 0x8, addend: 0x0, symName: __ZNSt6vectorI12taskPeriodicSaIS0_EE15_M_range_insertIN9__gnu_cxx17__normal_iteratorIPS0_S2_EEEEvS7_T_S8_St20forward_iterator_tag, symObjAddr: 0x11AC, symBinAddr: 0x100005FA0, symSize: 0x488 }
  - { offset: 0x1B07C, size: 0x8, addend: 0x0, symName: __ZNK9__gnu_cxx17__normal_iteratorIP12taskPeriodicSt6vectorIS1_SaIS1_EEEplEl, symObjAddr: 0x1160, symBinAddr: 0x100005F54, symSize: 0x4C }
  - { offset: 0x1B0B0, size: 0x8, addend: 0x0, symName: __ZN9__gnu_cxxmiIPK12taskPeriodicSt6vectorIS1_SaIS1_EEEENS_17__normal_iteratorIT_T0_E15difference_typeERKSA_SD_, symObjAddr: 0x110C, symBinAddr: 0x100005F00, symSize: 0x54 }
  - { offset: 0x1B0FE, size: 0x8, addend: 0x0, symName: __ZNKSt6vectorI12taskPeriodicSaIS0_EE6cbeginEv, symObjAddr: 0x10E8, symBinAddr: 0x100005EDC, symSize: 0x24 }
  - { offset: 0x1B1B7, size: 0x8, addend: 0x0, symName: __ZNSt7__cxx1112basic_stringIcSt11char_traitsIcESaIcEEC1IS3_EEmcRKS3_, symObjAddr: 0xE9C, symBinAddr: 0x100005E68, symSize: 0x74 }
  - { offset: 0x1B1F3, size: 0x8, addend: 0x0, symName: __ZNSt6vectorI12taskPeriodicSaIS0_EEixEm, symObjAddr: 0xDE4, symBinAddr: 0x100005E34, symSize: 0x34 }
  - { offset: 0x1B22B, size: 0x8, addend: 0x0, symName: __ZNSt6vectorI12taskPeriodicSaIS0_EE6insertIN9__gnu_cxx17__normal_iteratorIPS0_S2_EEvEES7_NS5_IPKS0_S2_EET_SB_, symObjAddr: 0xD18, symBinAddr: 0x100005DA4, symSize: 0x90 }
  - { offset: 0x1B2EF, size: 0x8, addend: 0x0, symName: __ZN9__gnu_cxx17__normal_iteratorIPK12taskPeriodicSt6vectorIS1_SaIS1_EEEC1IPS1_vEERKNS0_IT_S6_EE, symObjAddr: 0xCE8, symBinAddr: 0x100005D74, symSize: 0x30 }
  - { offset: 0x1B359, size: 0x8, addend: 0x0, symName: __Z11simulateEDFSt6vectorI12taskPeriodicSaIS0_EES2_iRSt14basic_ofstreamIcSt11char_traitsIcEE, symObjAddr: 0x1D0, symBinAddr: 0x100005444, symSize: 0x930 }
  - { offset: 0x1B5F9, size: 0x8, addend: 0x0, symName: __ZSt4setwi, symObjAddr: 0x1BC, symBinAddr: 0x100005430, symSize: 0x14 }
  - { offset: 0x1B620, size: 0x8, addend: 0x0, symName: __ZSt12setprecisioni, symObjAddr: 0x1A8, symBinAddr: 0x10000541C, symSize: 0x14 }
  - { offset: 0x1B647, size: 0x8, addend: 0x0, symName: __ZSt5fixedRSt8ios_base, symObjAddr: 0x180, symBinAddr: 0x1000053F4, symSize: 0x28 }
  - { offset: 0x1B66F, size: 0x8, addend: 0x0, symName: __ZSt4leftRSt8ios_base, symObjAddr: 0x158, symBinAddr: 0x1000053CC, symSize: 0x28 }
  - { offset: 0x1B6A6, size: 0x8, addend: 0x0, symName: __ZNSt8ios_base4setfESt13_Ios_FmtflagsS0_, symObjAddr: 0xF8, symBinAddr: 0x10000536C, symSize: 0x60 }
  - { offset: 0x1B707, size: 0x8, addend: 0x0, symName: __ZStaNRSt13_Ios_FmtflagsS_, symObjAddr: 0xC0, symBinAddr: 0x100005334, symSize: 0x38 }
  - { offset: 0x1B73D, size: 0x8, addend: 0x0, symName: __ZStoRRSt13_Ios_FmtflagsS_, symObjAddr: 0x88, symBinAddr: 0x1000052FC, symSize: 0x38 }
  - { offset: 0x1B773, size: 0x8, addend: 0x0, symName: __ZStcoSt13_Ios_Fmtflags, symObjAddr: 0x70, symBinAddr: 0x1000052E4, symSize: 0x18 }
  - { offset: 0x1B79A, size: 0x8, addend: 0x0, symName: __ZStorSt13_Ios_FmtflagsS_, symObjAddr: 0x50, symBinAddr: 0x1000052C4, symSize: 0x20 }
  - { offset: 0x1B7D0, size: 0x8, addend: 0x0, symName: __ZStanSt13_Ios_FmtflagsS_, symObjAddr: 0x30, symBinAddr: 0x1000052A4, symSize: 0x20 }
  - { offset: 0x207B2, size: 0x8, addend: 0x0, symName: __ZStL8__ioinit, symObjAddr: 0x2D88A, symBinAddr: 0x100010004, symSize: 0x0 }
  - { offset: 0x20C4D, size: 0x8, addend: 0x0, symName: __Z11simulateLLFSt6vectorI12taskPeriodicSaIS0_EES2_iRSt14basic_ofstreamIcSt11char_traitsIcEE, symObjAddr: 0x1D0, symBinAddr: 0x100006F6C, symSize: 0x948 }
  - { offset: 0x25EBC, size: 0x8, addend: 0x0, symName: __ZStL8__ioinit, symObjAddr: 0x2DD89, symBinAddr: 0x100010005, symSize: 0x0 }
  - { offset: 0x26318, size: 0x8, addend: 0x0, symName: __ZNKSt6vectorI12taskPeriodicSaIS0_EE14_M_range_checkEm, symObjAddr: 0x1730, symBinAddr: 0x100008330, symSize: 0x6C }
  - { offset: 0x26364, size: 0x8, addend: 0x0, symName: __ZNSt6vectorI12taskPeriodicSaIS0_EE2atEm, symObjAddr: 0xEE4, symBinAddr: 0x100008300, symSize: 0x30 }
  - { offset: 0x263D1, size: 0x8, addend: 0x0, symName: __Z10simulateRMSt6vectorI12taskPeriodicSaIS0_EES2_iRSt14basic_ofstreamIcSt11char_traitsIcEE, symObjAddr: 0x1D0, symBinAddr: 0x100007904, symSize: 0x9FC }
...
